target datalayout = "e-m:e-p270:32:32-p271:32:32-p272:64:64-i64:64-i128:128-f80:128-n8:16:32:64-S128"
target triple = "x86_64-pc-linux-gnu"

; Function Attrs: nounwind uwtable
define dso_local ptr @php_strtr(ptr noundef %0, i64 noundef %1, ptr noundef %2, ptr noundef %3, i64 noundef %4) #0 {
  %6 = alloca ptr, align 8
  %7 = alloca ptr, align 8
  %8 = alloca i64, align 8
  %9 = alloca ptr, align 8
  %10 = alloca ptr, align 8
  %11 = alloca i64, align 8
  %12 = alloca i64, align 8
  %13 = alloca i32, align 4
  %14 = alloca i8, align 1
  %15 = alloca i8, align 1
  %16 = alloca [256 x i8], align 16
  store ptr %0, ptr %7, align 8, !tbaa !10
  store i64 %1, ptr %8, align 8, !tbaa !31
  store ptr %2, ptr %9, align 8, !tbaa !10
  store ptr %3, ptr %10, align 8, !tbaa !10
  store i64 %4, ptr %11, align 8, !tbaa !31
  call void @llvm.lifetime.start.p0(i64 8, ptr %12) #22
  %17 = load i64, ptr %11, align 8, !tbaa !31
  %18 = icmp ult i64 %17, 1
  %19 = xor i1 %18, true
  %20 = xor i1 %19, true
  %21 = zext i1 %20 to i32
  %22 = sext i32 %21 to i64
  %23 = call i64 @llvm.expect.i64(i64 %22, i64 0)
  %24 = icmp ne i64 %23, 0
  br i1 %24, label %25, label %27

25:                                               ; preds = %5
  %26 = load ptr, ptr %7, align 8, !tbaa !10
  store ptr %26, ptr %6, align 8
  store i32 1, ptr %13, align 4
  br label %114

27:                                               ; preds = %5
  %28 = load i64, ptr %11, align 8, !tbaa !31
  %29 = icmp eq i64 %28, 1
  br i1 %29, label %30, label %58

30:                                               ; preds = %27
  call void @llvm.lifetime.start.p0(i64 1, ptr %14) #22
  %31 = load ptr, ptr %9, align 8, !tbaa !10
  %32 = load i8, ptr %31, align 1, !tbaa !12
  store i8 %32, ptr %14, align 1, !tbaa !12
  call void @llvm.lifetime.start.p0(i64 1, ptr %15) #22
  %33 = load ptr, ptr %10, align 8, !tbaa !10
  %34 = load i8, ptr %33, align 1, !tbaa !12
  store i8 %34, ptr %15, align 1, !tbaa !12
  store i64 0, ptr %12, align 8, !tbaa !31
  br label %35

35:                                               ; preds = %54, %30
  %36 = load i64, ptr %12, align 8, !tbaa !31
  %37 = load i64, ptr %8, align 8, !tbaa !31
  %38 = icmp ult i64 %36, %37
  br i1 %38, label %39, label %57

39:                                               ; preds = %35
  %40 = load ptr, ptr %7, align 8, !tbaa !10
  %41 = load i64, ptr %12, align 8, !tbaa !31
  %42 = getelementptr inbounds nuw i8, ptr %40, i64 %41
  %43 = load i8, ptr %42, align 1, !tbaa !12
  %44 = sext i8 %43 to i32
  %45 = load i8, ptr %14, align 1, !tbaa !12
  %46 = sext i8 %45 to i32
  %47 = icmp eq i32 %44, %46
  br i1 %47, label %48, label %53

48:                                               ; preds = %39
  %49 = load i8, ptr %15, align 1, !tbaa !12
  %50 = load ptr, ptr %7, align 8, !tbaa !10
  %51 = load i64, ptr %12, align 8, !tbaa !31
  %52 = getelementptr inbounds nuw i8, ptr %50, i64 %51
  store i8 %49, ptr %52, align 1, !tbaa !12
  br label %53

53:                                               ; preds = %48, %39
  br label %54

54:                                               ; preds = %53
  %55 = load i64, ptr %12, align 8, !tbaa !31
  %56 = add i64 %55, 1
  store i64 %56, ptr %12, align 8, !tbaa !31
  br label %35

57:                                               ; preds = %35
  call void @llvm.lifetime.end.p0(i64 1, ptr %15) #22
  call void @llvm.lifetime.end.p0(i64 1, ptr %14) #22
  br label %111

58:                                               ; preds = %27
  call void @llvm.lifetime.start.p0(i64 256, ptr %16) #22
  %59 = getelementptr inbounds [256 x i8], ptr %16, i64 0, i64 0
  call void @llvm.memset.p0.i64(ptr align 16 %59, i8 0, i64 256, i1 false)
  store i64 0, ptr %12, align 8, !tbaa !31
  br label %60

60:                                               ; preds = %83, %58
  %61 = load i64, ptr %12, align 8, !tbaa !31
  %62 = load i64, ptr %11, align 8, !tbaa !31
  %63 = icmp ult i64 %61, %62
  br i1 %63, label %64, label %86

64:                                               ; preds = %60
  %65 = load ptr, ptr %10, align 8, !tbaa !10
  %66 = load i64, ptr %12, align 8, !tbaa !31
  %67 = getelementptr inbounds nuw i8, ptr %65, i64 %66
  %68 = load i8, ptr %67, align 1, !tbaa !12
  %69 = sext i8 %68 to i32
  %70 = load ptr, ptr %9, align 8, !tbaa !10
  %71 = load i64, ptr %12, align 8, !tbaa !31
  %72 = getelementptr inbounds nuw i8, ptr %70, i64 %71
  %73 = load i8, ptr %72, align 1, !tbaa !12
  %74 = sext i8 %73 to i32
  %75 = sub nsw i32 %69, %74
  %76 = trunc i32 %75 to i8
  %77 = load ptr, ptr %9, align 8, !tbaa !10
  %78 = load i64, ptr %12, align 8, !tbaa !31
  %79 = getelementptr inbounds nuw i8, ptr %77, i64 %78
  %80 = load i8, ptr %79, align 1, !tbaa !12
  %81 = zext i8 %80 to i64
  %82 = getelementptr inbounds nuw [256 x i8], ptr %16, i64 0, i64 %81
  store i8 %76, ptr %82, align 1, !tbaa !12
  br label %83

83:                                               ; preds = %64
  %84 = load i64, ptr %12, align 8, !tbaa !31
  %85 = add i64 %84, 1
  store i64 %85, ptr %12, align 8, !tbaa !31
  br label %60

86:                                               ; preds = %60
  store i64 0, ptr %12, align 8, !tbaa !31
  br label %87

87:                                               ; preds = %107, %86
  %88 = load i64, ptr %12, align 8, !tbaa !31
  %89 = load i64, ptr %8, align 8, !tbaa !31
  %90 = icmp ult i64 %88, %89
  br i1 %90, label %91, label %110

91:                                               ; preds = %87
  %92 = load ptr, ptr %7, align 8, !tbaa !10
  %93 = load i64, ptr %12, align 8, !tbaa !31
  %94 = getelementptr inbounds nuw i8, ptr %92, i64 %93
  %95 = load i8, ptr %94, align 1, !tbaa !12
  %96 = zext i8 %95 to i64
  %97 = getelementptr inbounds nuw [256 x i8], ptr %16, i64 0, i64 %96
  %98 = load i8, ptr %97, align 1, !tbaa !12
  %99 = zext i8 %98 to i32
  %100 = load ptr, ptr %7, align 8, !tbaa !10
  %101 = load i64, ptr %12, align 8, !tbaa !31
  %102 = getelementptr inbounds nuw i8, ptr %100, i64 %101
  %103 = load i8, ptr %102, align 1, !tbaa !12
  %104 = sext i8 %103 to i32
  %105 = add nsw i32 %104, %99
  %106 = trunc i32 %105 to i8
  store i8 %106, ptr %102, align 1, !tbaa !12
  br label %107

107:                                              ; preds = %91
  %108 = load i64, ptr %12, align 8, !tbaa !31
  %109 = add i64 %108, 1
  store i64 %109, ptr %12, align 8, !tbaa !31
  br label %87

110:                                              ; preds = %87
  call void @llvm.lifetime.end.p0(i64 256, ptr %16) #22
  br label %111

111:                                              ; preds = %110, %57
  br label %112

112:                                              ; preds = %111
  %113 = load ptr, ptr %7, align 8, !tbaa !10
  store ptr %113, ptr %6, align 8
  store i32 1, ptr %13, align 4
  br label %114

114:                                              ; preds = %112, %25
  call void @llvm.lifetime.end.p0(i64 8, ptr %12) #22
  %115 = load ptr, ptr %6, align 8
  ret ptr %115
}