; Function Attrs: nofree norecurse nosync nounwind memory(argmem: readwrite) uwtable
define dso_local noundef ptr @php_strtr(ptr noundef returned captures(ret: address, provenance) %0, i64 noundef %1, ptr noundef readonly captures(none) %2, ptr noundef readonly captures(none) %3, i64 noundef %4) local_unnamed_addr #13 {
  %6 = alloca [256 x i8], align 16
  switch i64 %4, label %.lr.ph34.preheader [
    i64 0, label %.loopexit
    i64 1, label %7
  ], !prof !110

7:                                                ; preds = %5
  %8 = load i8, ptr %2, align 1, !tbaa !10
  %9 = load i8, ptr %3, align 1, !tbaa !10
  %.not = icmp eq i64 %1, 0
  br i1 %.not, label %.loopexit, label %.lr.ph

.lr.ph:                                           ; preds = %7, %14
  %.03132 = phi i64 [ %15, %14 ], [ 0, %7 ]
  %10 = getelementptr inbounds nuw i8, ptr %0, i64 %.03132
  %11 = load i8, ptr %10, align 1, !tbaa !10
  %12 = icmp eq i8 %11, %8
  br i1 %12, label %13, label %14

13:                                               ; preds = %.lr.ph
  store i8 %9, ptr %10, align 1, !tbaa !10
  br label %14

14:                                               ; preds = %.lr.ph, %13
  %15 = add nuw i64 %.03132, 1
  %exitcond.not = icmp eq i64 %15, %1
  br i1 %exitcond.not, label %.loopexit, label %.lr.ph

.lr.ph34.preheader:                               ; preds = %5
  call void @llvm.lifetime.start.p0(i64 256, ptr nonnull %6) #28
  call void @llvm.memset.p0.i64(ptr noundef nonnull align 16 dereferenceable(256) %6, i8 0, i64 256, i1 false)
  br label %.lr.ph34

.preheader:                                       ; preds = %.lr.ph34
  %.not38 = icmp eq i64 %1, 0
  br i1 %.not38, label %._crit_edge, label %.lr.ph36

.lr.ph34:                                         ; preds = %.lr.ph34.preheader, %.lr.ph34
  %.133 = phi i64 [ %23, %.lr.ph34 ], [ 0, %.lr.ph34.preheader ]
  %16 = getelementptr inbounds nuw i8, ptr %3, i64 %.133
  %17 = load i8, ptr %16, align 1, !tbaa !10
  %18 = getelementptr inbounds nuw i8, ptr %2, i64 %.133
  %19 = load i8, ptr %18, align 1, !tbaa !10
  %20 = sub i8 %17, %19
  %21 = zext i8 %19 to i64
  %22 = getelementptr inbounds nuw [256 x i8], ptr %6, i64 0, i64 %21
  store i8 %20, ptr %22, align 1, !tbaa !10
  %23 = add nuw i64 %.133, 1
  %exitcond39.not = icmp eq i64 %23, %4
  br i1 %exitcond39.not, label %.preheader, label %.lr.ph34

.lr.ph36:                                         ; preds = %.preheader, %.lr.ph36
  %.235 = phi i64 [ %30, %.lr.ph36 ], [ 0, %.preheader ]
  %24 = getelementptr inbounds nuw i8, ptr %0, i64 %.235
  %25 = load i8, ptr %24, align 1, !tbaa !10
  %26 = zext i8 %25 to i64
  %27 = getelementptr inbounds nuw [256 x i8], ptr %6, i64 0, i64 %26
  %28 = load i8, ptr %27, align 1, !tbaa !10
  %29 = add i8 %28, %25
  store i8 %29, ptr %24, align 1, !tbaa !10
  %30 = add nuw i64 %.235, 1
  %exitcond40.not = icmp eq i64 %30, %1
  br i1 %exitcond40.not, label %._crit_edge, label %.lr.ph36

._crit_edge:                                      ; preds = %.lr.ph36, %.preheader
  call void @llvm.lifetime.end.p0(i64 256, ptr nonnull %6) #28
  br label %.loopexit

.loopexit:                                        ; preds = %14, %7, %._crit_edge, %5
  ret ptr %0
}